target datalayout = "e-m:e-p270:32:32-p271:32:32-p272:64:64-i64:64-i128:128-f80:128-n8:16:32:64-S128"
target triple = "x86_64-pc-linux-gnu"

%struct.dlist_head = type { %struct.dlist_node }
%struct.dlist_node = type { ptr, ptr }
%struct.LogicalRepWorker = type { i32, i64, i8, i16, ptr, i32, i32, i32, i32, i8, i64, i8, ptr, i32, i8, i64, i64, i64, i64, i64 }
%struct.LogicalRepCommitData = type { i64, i64, i64 }
%struct.FlushPosition = type { %struct.dlist_node, i64, i64 }

@ApplyMessageContext = dso_local global ptr null, align 8
@ApplyContext = dso_local global ptr null, align 8
@in_remote_transaction = dso_local global i8 0, align 1
@MyLogicalRepWorker = external global ptr, align 8
@lsn_mapping = internal global %struct.dlist_head { %struct.dlist_node { ptr @lsn_mapping, ptr @lsn_mapping } }, align 8
@CurrentMemoryContext = external global ptr, align 8
@skip_xact_finish_lsn = internal global i64 0, align 8
@replorigin_session_origin_lsn = external global i64, align 8
@replorigin_session_origin_timestamp = external global i64, align 8
@XactLastCommitEnd = external global i64, align 8

; Function Attrs: inlinehint nounwind uwtable
define internal void @dlist_init(ptr noundef %0) #3 {
  %2 = alloca ptr, align 8
  store ptr %0, ptr %2, align 8
  %3 = load ptr, ptr %2, align 8
  %4 = getelementptr inbounds nuw %struct.dlist_head, ptr %3, i32 0, i32 0
  %5 = load ptr, ptr %2, align 8
  %6 = getelementptr inbounds nuw %struct.dlist_head, ptr %5, i32 0, i32 0
  %7 = getelementptr inbounds nuw %struct.dlist_node, ptr %6, i32 0, i32 0
  store ptr %4, ptr %7, align 8
  %8 = load ptr, ptr %2, align 8
  %9 = getelementptr inbounds nuw %struct.dlist_head, ptr %8, i32 0, i32 0
  %10 = getelementptr inbounds nuw %struct.dlist_node, ptr %9, i32 0, i32 1
  store ptr %4, ptr %10, align 8
  ret void
}

; Function Attrs: inlinehint nounwind uwtable
define internal void @dlist_push_tail(ptr noundef %0, ptr noundef %1) #3 {
  %3 = alloca ptr, align 8
  %4 = alloca ptr, align 8
  store ptr %0, ptr %3, align 8
  store ptr %1, ptr %4, align 8
  %5 = load ptr, ptr %3, align 8
  %6 = getelementptr inbounds nuw %struct.dlist_head, ptr %5, i32 0, i32 0
  %7 = getelementptr inbounds nuw %struct.dlist_node, ptr %6, i32 0, i32 1
  %8 = load ptr, ptr %7, align 8
  %9 = icmp eq ptr %8, null
  br i1 %9, label %10, label %12

10:                                               ; preds = %2
  %11 = load ptr, ptr %3, align 8
  call void @dlist_init(ptr noundef %11)
  br label %12

12:                                               ; preds = %10, %2
  %13 = load ptr, ptr %3, align 8
  %14 = getelementptr inbounds nuw %struct.dlist_head, ptr %13, i32 0, i32 0
  %15 = load ptr, ptr %4, align 8
  %16 = getelementptr inbounds nuw %struct.dlist_node, ptr %15, i32 0, i32 1
  store ptr %14, ptr %16, align 8
  %17 = load ptr, ptr %3, align 8
  %18 = getelementptr inbounds nuw %struct.dlist_head, ptr %17, i32 0, i32 0
  %19 = getelementptr inbounds nuw %struct.dlist_node, ptr %18, i32 0, i32 0
  %20 = load ptr, ptr %19, align 8
  %21 = load ptr, ptr %4, align 8
  %22 = getelementptr inbounds nuw %struct.dlist_node, ptr %21, i32 0, i32 0
  store ptr %20, ptr %22, align 8
  %23 = load ptr, ptr %4, align 8
  %24 = load ptr, ptr %4, align 8
  %25 = getelementptr inbounds nuw %struct.dlist_node, ptr %24, i32 0, i32 0
  %26 = load ptr, ptr %25, align 8
  %27 = getelementptr inbounds nuw %struct.dlist_node, ptr %26, i32 0, i32 1
  store ptr %23, ptr %27, align 8
  %28 = load ptr, ptr %4, align 8
  %29 = load ptr, ptr %3, align 8
  %30 = getelementptr inbounds nuw %struct.dlist_head, ptr %29, i32 0, i32 0
  %31 = getelementptr inbounds nuw %struct.dlist_node, ptr %30, i32 0, i32 0
  store ptr %28, ptr %31, align 8
  ret void
}

; Function Attrs: inlinehint nounwind uwtable
define internal ptr @MemoryContextSwitchTo(ptr noundef %0) #3 {
  %2 = alloca ptr, align 8
  %3 = alloca ptr, align 8
  store ptr %0, ptr %2, align 8
  call void @llvm.lifetime.start.p0(i64 8, ptr %3) #12
  %4 = load ptr, ptr @CurrentMemoryContext, align 8
  store ptr %4, ptr %3, align 8
  %5 = load ptr, ptr %2, align 8
  store ptr %5, ptr @CurrentMemoryContext, align 8
  %6 = load ptr, ptr %3, align 8
  call void @llvm.lifetime.end.p0(i64 8, ptr %3) #12
  ret ptr %6
}

; Function Attrs: inlinehint nounwind uwtable
define internal zeroext i1 @am_parallel_apply_worker() #3 {
  %1 = load ptr, ptr @MyLogicalRepWorker, align 8
  %2 = getelementptr inbounds nuw %struct.LogicalRepWorker, ptr %1, i32 0, i32 2
  %3 = load i8, ptr %2, align 8, !range !4, !noundef !5
  %4 = trunc i8 %3 to i1
  br i1 %4, label %5, label %10

5:                                                ; preds = %0
  %6 = load ptr, ptr @MyLogicalRepWorker, align 8
  %7 = getelementptr inbounds nuw %struct.LogicalRepWorker, ptr %6, i32 0, i32 0
  %8 = load i32, ptr %7, align 8
  %9 = icmp eq i32 %8, 3
  br label %10

10:                                               ; preds = %5, %0
  %11 = phi i1 [ false, %0 ], [ %9, %5 ]
  ret i1 %11
}

; Function Attrs: nounwind uwtable
define dso_local void @store_flush_position(i64 noundef %0, i64 noundef %1) #0 {
  %3 = alloca i64, align 8
  %4 = alloca i64, align 8
  %5 = alloca ptr, align 8
  %6 = alloca i32, align 4
  store i64 %0, ptr %3, align 8
  store i64 %1, ptr %4, align 8
  call void @llvm.lifetime.start.p0(i64 8, ptr %5) #12
  %7 = call zeroext i1 @am_parallel_apply_worker()
  br i1 %7, label %8, label %9

8:                                                ; preds = %2
  store i32 1, ptr %6, align 4
  br label %23

9:                                                ; preds = %2
  %10 = load ptr, ptr @ApplyContext, align 8
  %11 = call ptr @MemoryContextSwitchTo(ptr noundef %10)
  %12 = call ptr @palloc(i64 noundef 32)
  store ptr %12, ptr %5, align 8
  %13 = load i64, ptr %4, align 8
  %14 = load ptr, ptr %5, align 8
  %15 = getelementptr inbounds nuw %struct.FlushPosition, ptr %14, i32 0, i32 1
  store i64 %13, ptr %15, align 8
  %16 = load i64, ptr %3, align 8
  %17 = load ptr, ptr %5, align 8
  %18 = getelementptr inbounds nuw %struct.FlushPosition, ptr %17, i32 0, i32 2
  store i64 %16, ptr %18, align 8
  %19 = load ptr, ptr %5, align 8
  %20 = getelementptr inbounds nuw %struct.FlushPosition, ptr %19, i32 0, i32 0
  call void @dlist_push_tail(ptr noundef @lsn_mapping, ptr noundef %20)
  %21 = load ptr, ptr @ApplyMessageContext, align 8
  %22 = call ptr @MemoryContextSwitchTo(ptr noundef %21)
  store i32 0, ptr %6, align 4
  br label %23

23:                                               ; preds = %9, %8
  call void @llvm.lifetime.end.p0(i64 8, ptr %5) #12
  %24 = load i32, ptr %6, align 4
  switch i32 %24, label %26 [
    i32 0, label %25
    i32 1, label %25
  ]

25:                                               ; preds = %23, %23
  ret void

26:                                               ; preds = %23
  unreachable
}

; Function Attrs: nounwind uwtable
define internal void @apply_handle_commit_internal(ptr noundef %0) #0 {
  %2 = alloca ptr, align 8
  store ptr %0, ptr %2, align 8
  %3 = load i64, ptr @skip_xact_finish_lsn, align 8
  %4 = icmp eq i64 %3, 0
  %5 = xor i1 %4, true
  %6 = zext i1 %5 to i32
  %7 = icmp ne i32 %6, 0
  %8 = zext i1 %7 to i32
  %9 = sext i32 %8 to i64
  %10 = call i64 @llvm.expect.i64(i64 %9, i64 0)
  %11 = icmp ne i64 %10, 0
  br i1 %11, label %12, label %16

12:                                               ; preds = %1
  call void @stop_skipping_changes()
  %13 = call zeroext i1 @IsTransactionState()
  br i1 %13, label %15, label %14

14:                                               ; preds = %12
  call void @StartTransactionCommand()
  br label %15

15:                                               ; preds = %14, %12
  br label %16

16:                                               ; preds = %15, %1
  %17 = call zeroext i1 @IsTransactionState()
  br i1 %17, label %18, label %37

18:                                               ; preds = %16
  %19 = load ptr, ptr %2, align 8
  %20 = getelementptr inbounds nuw %struct.LogicalRepCommitData, ptr %19, i32 0, i32 0
  %21 = load i64, ptr %20, align 8
  call void @clear_subscription_skip_lsn(i64 noundef %21)
  %22 = load ptr, ptr %2, align 8
  %23 = getelementptr inbounds nuw %struct.LogicalRepCommitData, ptr %22, i32 0, i32 1
  %24 = load i64, ptr %23, align 8
  store i64 %24, ptr @replorigin_session_origin_lsn, align 8
  %25 = load ptr, ptr %2, align 8
  %26 = getelementptr inbounds nuw %struct.LogicalRepCommitData, ptr %25, i32 0, i32 2
  %27 = load i64, ptr %26, align 8
  store i64 %27, ptr @replorigin_session_origin_timestamp, align 8
  call void @CommitTransactionCommand()
  %28 = call zeroext i1 @IsTransactionBlock()
  br i1 %28, label %29, label %31

29:                                               ; preds = %18
  %30 = call zeroext i1 @EndTransactionBlock(i1 noundef zeroext false)
  call void @CommitTransactionCommand()
  br label %31

31:                                               ; preds = %29, %18
  %32 = call i64 @pgstat_report_stat(i1 noundef zeroext false)
  %33 = load ptr, ptr %2, align 8
  %34 = getelementptr inbounds nuw %struct.LogicalRepCommitData, ptr %33, i32 0, i32 1
  %35 = load i64, ptr %34, align 8
  %36 = load i64, ptr @XactLastCommitEnd, align 8
  call void @store_flush_position(i64 noundef %35, i64 noundef %36)
  br label %38

37:                                               ; preds = %16
  call void @AcceptInvalidationMessages()
  call void @maybe_reread_subscription()
  br label %38

38:                                               ; preds = %37, %31
  store i8 0, ptr @in_remote_transaction, align 1
  ret void
}