; Function Attrs: nounwind uwtable
define internal fastcc void @apply_handle_commit_internal(ptr noundef nonnull readonly captures(none) %0) unnamed_addr #0 {
  %2 = load i64, ptr @skip_xact_finish_lsn, align 8
  %.not = icmp eq i64 %2, 0
  br i1 %.not, label %6, label %3, !prof !6

3:                                                ; preds = %1
  tail call fastcc void @stop_skipping_changes()
  %4 = tail call zeroext i1 @IsTransactionState() #17
  br i1 %4, label %6, label %5

5:                                                ; preds = %3
  tail call void @StartTransactionCommand() #17
  br label %6

6:                                                ; preds = %3, %5, %1
  %7 = tail call zeroext i1 @IsTransactionState() #17
  br i1 %7, label %8, label %38

8:                                                ; preds = %6
  %9 = load i64, ptr %0, align 8
  tail call fastcc void @clear_subscription_skip_lsn(i64 noundef %9)
  %10 = getelementptr inbounds nuw i8, ptr %0, i64 8
  %11 = load i64, ptr %10, align 8
  store i64 %11, ptr @replorigin_session_origin_lsn, align 8
  %12 = getelementptr inbounds nuw i8, ptr %0, i64 16
  %13 = load i64, ptr %12, align 8
  store i64 %13, ptr @replorigin_session_origin_timestamp, align 8
  tail call void @CommitTransactionCommand() #17
  %14 = tail call zeroext i1 @IsTransactionBlock() #17
  br i1 %14, label %15, label %17

15:                                               ; preds = %8
  %16 = tail call zeroext i1 @EndTransactionBlock(i1 noundef zeroext false) #17
  tail call void @CommitTransactionCommand() #17
  br label %17

17:                                               ; preds = %15, %8
  %18 = tail call i64 @pgstat_report_stat(i1 noundef zeroext false) #17
  %19 = load i64, ptr %10, align 8
  %20 = load i64, ptr @XactLastCommitEnd, align 8
  %21 = load ptr, ptr @MyLogicalRepWorker, align 8
  %22 = getelementptr inbounds nuw i8, ptr %21, i64 16
  %23 = load i8, ptr %22, align 8, !range !4, !noundef !5
  %24 = trunc nuw i8 %23 to i1
  br i1 %24, label %am_parallel_apply_worker.exit.i, label %am_parallel_apply_worker.exit.thread.i

am_parallel_apply_worker.exit.i:                  ; preds = %17
  %25 = load i32, ptr %21, align 8
  %26 = icmp eq i32 %25, 3
  br i1 %26, label %store_flush_position.exit, label %am_parallel_apply_worker.exit.thread.i

am_parallel_apply_worker.exit.thread.i:           ; preds = %am_parallel_apply_worker.exit.i, %17
  %27 = load ptr, ptr @ApplyContext, align 8
  store ptr %27, ptr @CurrentMemoryContext, align 8
  %28 = tail call ptr @palloc(i64 noundef 32) #17
  %29 = getelementptr inbounds nuw i8, ptr %28, i64 16
  store i64 %20, ptr %29, align 8
  %30 = getelementptr inbounds nuw i8, ptr %28, i64 24
  store i64 %19, ptr %30, align 8
  %31 = load ptr, ptr getelementptr inbounds nuw (i8, ptr @lsn_mapping, i64 8), align 8
  %32 = icmp eq ptr %31, null
  br i1 %32, label %33, label %._crit_edge.i.i

._crit_edge.i.i:                                  ; preds = %am_parallel_apply_worker.exit.thread.i
  %.pre.i.i = load ptr, ptr @lsn_mapping, align 8
  br label %dlist_push_tail.exit.i

33:                                               ; preds = %am_parallel_apply_worker.exit.thread.i
  store ptr @lsn_mapping, ptr getelementptr inbounds nuw (i8, ptr @lsn_mapping, i64 8), align 8
  br label %dlist_push_tail.exit.i

dlist_push_tail.exit.i:                           ; preds = %33, %._crit_edge.i.i
  %34 = phi ptr [ %.pre.i.i, %._crit_edge.i.i ], [ @lsn_mapping, %33 ]
  %35 = getelementptr inbounds nuw i8, ptr %28, i64 8
  store ptr @lsn_mapping, ptr %35, align 8
  store ptr %34, ptr %28, align 8
  %36 = getelementptr inbounds nuw i8, ptr %34, i64 8
  store ptr %28, ptr %36, align 8
  store ptr %28, ptr @lsn_mapping, align 8
  %37 = load ptr, ptr @ApplyMessageContext, align 8
  store ptr %37, ptr @CurrentMemoryContext, align 8
  br label %store_flush_position.exit

38:                                               ; preds = %6
  tail call void @AcceptInvalidationMessages() #17
  tail call void @maybe_reread_subscription()
  br label %store_flush_position.exit

store_flush_position.exit:                        ; preds = %dlist_push_tail.exit.i, %am_parallel_apply_worker.exit.i, %38
  store i8 0, ptr @in_remote_transaction, align 1
  ret void
}